; Function Attrs: mustprogress nounwind uwtable
define void @_ZN6icu_756number26UnlocalizedNumberFormatterC2EOS1_(ptr noundef nonnull align 8 dereferenceable(473) %this, ptr noundef nonnull align 8 dereferenceable(473) %src) unnamed_addr #0 align 2 {
entry:
  %notation.i.i.i = getelementptr inbounds i8, ptr %this, i64 4
  %notation2.i.i.i = getelementptr inbounds i8, ptr %src, i64 4
  tail call void @llvm.memcpy.p0.p0.i64(ptr noundef nonnull align 4 dereferenceable(12) %notation.i.i.i, ptr noundef nonnull align 4 dereferenceable(12) %notation2.i.i.i, i64 12, i1 false)
  %unit.i.i.i = getelementptr inbounds i8, ptr %this, i64 16
  %unit3.i.i.i = getelementptr inbounds i8, ptr %src, i64 16
  tail call void @_ZN6icu_7511MeasureUnitC1EOS0_(ptr noundef nonnull align 8 dereferenceable(19) %unit.i.i.i, ptr noundef nonnull align 8 dereferenceable(19) %unit3.i.i.i) #14
  %perUnit.i.i.i = getelementptr inbounds i8, ptr %this, i64 40
  %perUnit4.i.i.i = getelementptr inbounds i8, ptr %src, i64 40
  tail call void @_ZN6icu_7511MeasureUnitC1EOS0_(ptr noundef nonnull align 8 dereferenceable(19) %perUnit.i.i.i, ptr noundef nonnull align 8 dereferenceable(19) %perUnit4.i.i.i) #14
  %precision.i.i.i = getelementptr inbounds i8, ptr %this, i64 64
  %precision5.i.i.i = getelementptr inbounds i8, ptr %src, i64 64
  tail call void @llvm.memcpy.p0.p0.i64(ptr noundef nonnull align 8 dereferenceable(69) %precision.i.i.i, ptr noundef nonnull align 8 dereferenceable(69) %precision5.i.i.i, i64 69, i1 false)
  %symbols.i.i.i = getelementptr inbounds i8, ptr %this, i64 136
  %symbols6.i.i.i = getelementptr inbounds i8, ptr %src, i64 136
  tail call void @_ZN6icu_756number4impl14SymbolsWrapperC1EOS2_(ptr noundef nonnull align 8 dereferenceable(16) %symbols.i.i.i, ptr noundef nonnull align 8 dereferenceable(16) %symbols6.i.i.i) #14
  %unitWidth.i.i.i = getelementptr inbounds i8, ptr %this, i64 152
  %unitWidth7.i.i.i = getelementptr inbounds i8, ptr %src, i64 152
  tail call void @llvm.memcpy.p0.p0.i64(ptr noundef nonnull align 8 dereferenceable(16) %unitWidth.i.i.i, ptr noundef nonnull align 8 dereferenceable(16) %unitWidth7.i.i.i, i64 16, i1 false)
  %scale.i.i.i = getelementptr inbounds i8, ptr %this, i64 168
  %scale8.i.i.i = getelementptr inbounds i8, ptr %src, i64 168
  tail call void @_ZN6icu_756number5ScaleC1EOS1_(ptr noundef nonnull align 8 dereferenceable(20) %scale.i.i.i, ptr noundef nonnull align 8 dereferenceable(20) %scale8.i.i.i) #14
  %usage.i.i.i = getelementptr inbounds i8, ptr %this, i64 192
  %usage9.i.i.i = getelementptr inbounds i8, ptr %src, i64 192
  tail call void @_ZN6icu_756number4impl10StringPropC1EOS2_(ptr noundef nonnull align 8 dereferenceable(16) %usage.i.i.i, ptr noundef nonnull align 8 dereferenceable(16) %usage9.i.i.i) #14
  %unitDisplayCase.i.i.i = getelementptr inbounds i8, ptr %this, i64 208
  %unitDisplayCase10.i.i.i = getelementptr inbounds i8, ptr %src, i64 208
  tail call void @_ZN6icu_756number4impl10StringPropC1EOS2_(ptr noundef nonnull align 8 dereferenceable(16) %unitDisplayCase.i.i.i, ptr noundef nonnull align 8 dereferenceable(16) %unitDisplayCase10.i.i.i) #14
  %affixProvider.i.i.i = getelementptr inbounds i8, ptr %this, i64 224
  %affixProvider11.i.i.i = getelementptr inbounds i8, ptr %src, i64 224
  tail call void @llvm.memcpy.p0.p0.i64(ptr noundef nonnull align 8 dereferenceable(20) %affixProvider.i.i.i, ptr noundef nonnull align 8 dereferenceable(20) %affixProvider11.i.i.i, i64 20, i1 false)
  %locale.i.i.i = getelementptr inbounds i8, ptr %this, i64 248
  %locale12.i.i.i = getelementptr inbounds i8, ptr %src, i64 248
  tail call void @_ZN6icu_756LocaleC1EOS0_(ptr noundef nonnull align 8 dereferenceable(217) %locale.i.i.i, ptr noundef nonnull align 8 dereferenceable(217) %locale12.i.i.i) #14
  ret void
}